target datalayout = "e-m:e-p270:32:32-p271:32:32-p272:64:64-i64:64-i128:128-f80:128-n8:16:32:64-S128"
target triple = "x86_64-pc-linux-gnu"

@.str.1 = private unnamed_addr constant [7 x i8] c"string\00", align 1
@.str.43 = private unnamed_addr constant [1 x i8] zeroinitializer, align 1
@.str.64 = private unnamed_addr constant [8 x i8] c"__index\00", align 1

; Function Attrs: mustprogress uwtable
define internal void @_ZL15createmetatableP9lua_State(ptr noundef %0) #2 {
  %2 = alloca ptr, align 8
  store ptr %0, ptr %2, align 8, !tbaa !20
  %3 = load ptr, ptr %2, align 8, !tbaa !20
  call void @_Z15lua_createtableP9lua_Stateii(ptr noundef %3, i32 noundef 0, i32 noundef 1)
  %4 = load ptr, ptr %2, align 8, !tbaa !20
  call void @_Z15lua_pushlstringP9lua_StatePKcm(ptr noundef %4, ptr noundef @.str.43, i64 noundef 0)
  %5 = load ptr, ptr %2, align 8, !tbaa !20
  call void @_Z13lua_pushvalueP9lua_Statei(ptr noundef %5, i32 noundef -2)
  %6 = load ptr, ptr %2, align 8, !tbaa !20
  %7 = call noundef i32 @_Z16lua_setmetatableP9lua_Statei(ptr noundef %6, i32 noundef -2)
  %8 = load ptr, ptr %2, align 8, !tbaa !20
  call void @_Z10lua_settopP9lua_Statei(ptr noundef %8, i32 noundef -2)
  %9 = load ptr, ptr %2, align 8, !tbaa !20
  call void @_Z13lua_pushvalueP9lua_Statei(ptr noundef %9, i32 noundef -2)
  %10 = load ptr, ptr %2, align 8, !tbaa !20
  call void @_Z12lua_setfieldP9lua_StateiPKc(ptr noundef %10, i32 noundef -2, ptr noundef @.str.64)
  %11 = load ptr, ptr %2, align 8, !tbaa !20
  call void @_Z10lua_settopP9lua_Statei(ptr noundef %11, i32 noundef -2)
  ret void
}

; Function Attrs: mustprogress uwtable
define dso_local noundef i32 @_Z14luaopen_stringP9lua_State(ptr noundef %0) #2 {
  %2 = alloca ptr, align 8
  store ptr %0, ptr %2, align 8, !tbaa !20
  %3 = load ptr, ptr %2, align 8, !tbaa !20
  call void @_Z13luaL_registerP9lua_StatePKcPK8luaL_Reg(ptr noundef %3, ptr noundef @.str.1, ptr noundef @_ZL6strlib)
  %4 = load ptr, ptr %2, align 8, !tbaa !20
  call void @_ZL15createmetatableP9lua_State(ptr noundef %4)
  ret i32 1
}