; Function Attrs: mustprogress uwtable
define dso_local noundef i32 @_Z14luaopen_stringP9lua_State(ptr noundef %0) local_unnamed_addr #0 {
  tail call void @_Z13luaL_registerP9lua_StatePKcPK8luaL_Reg(ptr noundef %0, ptr noundef nonnull @.str.1, ptr noundef nonnull @_ZL6strlib)
  tail call void @_Z15lua_createtableP9lua_Stateii(ptr noundef %0, i32 noundef 0, i32 noundef 1)
  tail call void @_Z15lua_pushlstringP9lua_StatePKcm(ptr noundef %0, ptr noundef nonnull @.str.43, i64 noundef 0)
  tail call void @_Z13lua_pushvalueP9lua_Statei(ptr noundef %0, i32 noundef -2)
  %2 = tail call noundef i32 @_Z16lua_setmetatableP9lua_Statei(ptr noundef %0, i32 noundef -2)
  tail call void @_Z10lua_settopP9lua_Statei(ptr noundef %0, i32 noundef -2)
  tail call void @_Z13lua_pushvalueP9lua_Statei(ptr noundef %0, i32 noundef -2)
  tail call void @_Z12lua_setfieldP9lua_StateiPKc(ptr noundef %0, i32 noundef -2, ptr noundef nonnull @.str.64)
  tail call void @_Z10lua_settopP9lua_Statei(ptr noundef %0, i32 noundef -2)
  ret i32 1
}